target datalayout = "e-m:e-p270:32:32-p271:32:32-p272:64:64-i64:64-i128:128-f80:128-n8:16:32:64-S128"
target triple = "x86_64-pc-linux-gnu"

; Function Attrs: mustprogress nounwind uwtable
define dso_local noundef zeroext i1 @_ZNK8simdjson8fallback14implementation13validate_utf8EPKcm(ptr noundef nonnull align 8 dereferenceable(48) %0, ptr noundef %1, i64 noundef %2) unnamed_addr #2 align 2 {
  %4 = alloca i1, align 1
  %5 = alloca ptr, align 8
  %6 = alloca ptr, align 8
  %7 = alloca i64, align 8
  %8 = alloca ptr, align 8
  %9 = alloca i64, align 8
  %10 = alloca i32, align 4
  %11 = alloca i64, align 8
  %12 = alloca i64, align 8
  %13 = alloca i64, align 8
  %14 = alloca i64, align 8
  %15 = alloca i32, align 4
  %16 = alloca i8, align 1
  store ptr %0, ptr %5, align 8, !tbaa !185
  store ptr %1, ptr %6, align 8, !tbaa !4
  store i64 %2, ptr %7, align 8, !tbaa !21
  call void @llvm.lifetime.start.p0(i64 8, ptr %8) #10
  %17 = load ptr, ptr %6, align 8, !tbaa !4
  store ptr %17, ptr %8, align 8, !tbaa !4
  call void @llvm.lifetime.start.p0(i64 8, ptr %9) #10
  store i64 0, ptr %9, align 8, !tbaa !21
  call void @llvm.lifetime.start.p0(i64 4, ptr %10) #10
  store i32 0, ptr %10, align 4, !tbaa !16
  br label %18

18:                                               ; preds = %257, %255, %3
  %19 = load i64, ptr %9, align 8, !tbaa !21
  %20 = load i64, ptr %7, align 8, !tbaa !21
  %21 = icmp ult i64 %19, %20
  br i1 %21, label %22, label %258

22:                                               ; preds = %18
  call void @llvm.lifetime.start.p0(i64 8, ptr %11) #10
  %23 = load i64, ptr %9, align 8, !tbaa !21
  %24 = add i64 %23, 16
  store i64 %24, ptr %11, align 8, !tbaa !21
  %25 = load i64, ptr %11, align 8, !tbaa !21
  %26 = load i64, ptr %7, align 8, !tbaa !21
  %27 = icmp ule i64 %25, %26
  br i1 %27, label %28, label %48

28:                                               ; preds = %22
  call void @llvm.lifetime.start.p0(i64 8, ptr %12) #10
  %29 = load ptr, ptr %8, align 8, !tbaa !4
  %30 = load i64, ptr %9, align 8, !tbaa !21
  %31 = getelementptr inbounds nuw i8, ptr %29, i64 %30
  call void @llvm.memcpy.p0.p0.i64(ptr align 8 %12, ptr align 1 %31, i64 8, i1 false)
  call void @llvm.lifetime.start.p0(i64 8, ptr %13) #10
  %32 = load ptr, ptr %8, align 8, !tbaa !4
  %33 = load i64, ptr %9, align 8, !tbaa !21
  %34 = getelementptr inbounds nuw i8, ptr %32, i64 %33
  %35 = getelementptr inbounds nuw i8, ptr %34, i64 8
  call void @llvm.memcpy.p0.p0.i64(ptr align 8 %13, ptr align 1 %35, i64 8, i1 false)
  call void @llvm.lifetime.start.p0(i64 8, ptr %14) #10
  %36 = load i64, ptr %12, align 8, !tbaa !21
  %37 = load i64, ptr %13, align 8, !tbaa !21
  %38 = or i64 %36, %37
  store i64 %38, ptr %14, align 8, !tbaa !21
  %39 = load i64, ptr %14, align 8, !tbaa !21
  %40 = and i64 %39, -9187201950435737472
  %41 = icmp eq i64 %40, 0
  br i1 %41, label %42, label %44

42:                                               ; preds = %28
  %43 = load i64, ptr %11, align 8, !tbaa !21
  store i64 %43, ptr %9, align 8, !tbaa !21
  store i32 2, ptr %15, align 4
  br label %45, !llvm.loop !214

44:                                               ; preds = %28
  store i32 0, ptr %15, align 4
  br label %45

45:                                               ; preds = %44, %42
  call void @llvm.lifetime.end.p0(i64 8, ptr %14) #10
  call void @llvm.lifetime.end.p0(i64 8, ptr %13) #10
  call void @llvm.lifetime.end.p0(i64 8, ptr %12) #10
  %46 = load i32, ptr %15, align 4
  switch i32 %46, label %255 [
    i32 0, label %47
  ]

47:                                               ; preds = %45
  br label %48

48:                                               ; preds = %47, %22
  call void @llvm.lifetime.start.p0(i64 1, ptr %16) #10
  %49 = load ptr, ptr %8, align 8, !tbaa !4
  %50 = load i64, ptr %9, align 8, !tbaa !21
  %51 = getelementptr inbounds nuw i8, ptr %49, i64 %50
  %52 = load i8, ptr %51, align 1, !tbaa !15
  store i8 %52, ptr %16, align 1, !tbaa !15
  %53 = load i8, ptr %16, align 1, !tbaa !15
  %54 = zext i8 %53 to i32
  %55 = icmp slt i32 %54, 128
  br i1 %55, label %56, label %59

56:                                               ; preds = %48
  %57 = load i64, ptr %9, align 8, !tbaa !21
  %58 = add i64 %57, 1
  store i64 %58, ptr %9, align 8, !tbaa !21
  store i32 2, ptr %15, align 4
  br label %254, !llvm.loop !214

59:                                               ; preds = %48
  %60 = load i8, ptr %16, align 1, !tbaa !15
  %61 = zext i8 %60 to i32
  %62 = and i32 %61, 224
  %63 = icmp eq i32 %62, 192
  br i1 %63, label %64, label %101

64:                                               ; preds = %59
  %65 = load i64, ptr %9, align 8, !tbaa !21
  %66 = add i64 %65, 2
  store i64 %66, ptr %11, align 8, !tbaa !21
  %67 = load i64, ptr %11, align 8, !tbaa !21
  %68 = load i64, ptr %7, align 8, !tbaa !21
  %69 = icmp ugt i64 %67, %68
  br i1 %69, label %70, label %71

70:                                               ; preds = %64
  store i1 false, ptr %4, align 1
  store i32 1, ptr %15, align 4
  br label %254

71:                                               ; preds = %64
  %72 = load ptr, ptr %8, align 8, !tbaa !4
  %73 = load i64, ptr %9, align 8, !tbaa !21
  %74 = add i64 %73, 1
  %75 = getelementptr inbounds nuw i8, ptr %72, i64 %74
  %76 = load i8, ptr %75, align 1, !tbaa !15
  %77 = zext i8 %76 to i32
  %78 = and i32 %77, 192
  %79 = icmp ne i32 %78, 128
  br i1 %79, label %80, label %81

80:                                               ; preds = %71
  store i1 false, ptr %4, align 1
  store i32 1, ptr %15, align 4
  br label %254

81:                                               ; preds = %71
  %82 = load i8, ptr %16, align 1, !tbaa !15
  %83 = zext i8 %82 to i32
  %84 = and i32 %83, 31
  %85 = shl i32 %84, 6
  %86 = load ptr, ptr %8, align 8, !tbaa !4
  %87 = load i64, ptr %9, align 8, !tbaa !21
  %88 = add i64 %87, 1
  %89 = getelementptr inbounds nuw i8, ptr %86, i64 %88
  %90 = load i8, ptr %89, align 1, !tbaa !15
  %91 = zext i8 %90 to i32
  %92 = and i32 %91, 63
  %93 = or i32 %85, %92
  store i32 %93, ptr %10, align 4, !tbaa !16
  %94 = load i32, ptr %10, align 4, !tbaa !16
  %95 = icmp ult i32 %94, 128
  br i1 %95, label %99, label %96

96:                                               ; preds = %81
  %97 = load i32, ptr %10, align 4, !tbaa !16
  %98 = icmp ult i32 2047, %97
  br i1 %98, label %99, label %100

99:                                               ; preds = %96, %81
  store i1 false, ptr %4, align 1
  store i32 1, ptr %15, align 4
  br label %254

100:                                              ; preds = %96
  br label %251

101:                                              ; preds = %59
  %102 = load i8, ptr %16, align 1, !tbaa !15
  %103 = zext i8 %102 to i32
  %104 = and i32 %103, 240
  %105 = icmp eq i32 %104, 224
  br i1 %105, label %106, label %168

106:                                              ; preds = %101
  %107 = load i64, ptr %9, align 8, !tbaa !21
  %108 = add i64 %107, 3
  store i64 %108, ptr %11, align 8, !tbaa !21
  %109 = load i64, ptr %11, align 8, !tbaa !21
  %110 = load i64, ptr %7, align 8, !tbaa !21
  %111 = icmp ugt i64 %109, %110
  br i1 %111, label %112, label %113

112:                                              ; preds = %106
  store i1 false, ptr %4, align 1
  store i32 1, ptr %15, align 4
  br label %254

113:                                              ; preds = %106
  %114 = load ptr, ptr %8, align 8, !tbaa !4
  %115 = load i64, ptr %9, align 8, !tbaa !21
  %116 = add i64 %115, 1
  %117 = getelementptr inbounds nuw i8, ptr %114, i64 %116
  %118 = load i8, ptr %117, align 1, !tbaa !15
  %119 = zext i8 %118 to i32
  %120 = and i32 %119, 192
  %121 = icmp ne i32 %120, 128
  br i1 %121, label %122, label %123

122:                                              ; preds = %113
  store i1 false, ptr %4, align 1
  store i32 1, ptr %15, align 4
  br label %254

123:                                              ; preds = %113
  %124 = load ptr, ptr %8, align 8, !tbaa !4
  %125 = load i64, ptr %9, align 8, !tbaa !21
  %126 = add i64 %125, 2
  %127 = getelementptr inbounds nuw i8, ptr %124, i64 %126
  %128 = load i8, ptr %127, align 1, !tbaa !15
  %129 = zext i8 %128 to i32
  %130 = and i32 %129, 192
  %131 = icmp ne i32 %130, 128
  br i1 %131, label %132, label %133

132:                                              ; preds = %123
  store i1 false, ptr %4, align 1
  store i32 1, ptr %15, align 4
  br label %254

133:                                              ; preds = %123
  %134 = load i8, ptr %16, align 1, !tbaa !15
  %135 = zext i8 %134 to i32
  %136 = and i32 %135, 15
  %137 = shl i32 %136, 12
  %138 = load ptr, ptr %8, align 8, !tbaa !4
  %139 = load i64, ptr %9, align 8, !tbaa !21
  %140 = add i64 %139, 1
  %141 = getelementptr inbounds nuw i8, ptr %138, i64 %140
  %142 = load i8, ptr %141, align 1, !tbaa !15
  %143 = zext i8 %142 to i32
  %144 = and i32 %143, 63
  %145 = shl i32 %144, 6
  %146 = or i32 %137, %145
  %147 = load ptr, ptr %8, align 8, !tbaa !4
  %148 = load i64, ptr %9, align 8, !tbaa !21
  %149 = add i64 %148, 2
  %150 = getelementptr inbounds nuw i8, ptr %147, i64 %149
  %151 = load i8, ptr %150, align 1, !tbaa !15
  %152 = zext i8 %151 to i32
  %153 = and i32 %152, 63
  %154 = or i32 %146, %153
  store i32 %154, ptr %10, align 4, !tbaa !16
  %155 = load i32, ptr %10, align 4, !tbaa !16
  %156 = icmp ult i32 %155, 2048
  br i1 %156, label %166, label %157

157:                                              ; preds = %133
  %158 = load i32, ptr %10, align 4, !tbaa !16
  %159 = icmp ult i32 65535, %158
  br i1 %159, label %166, label %160

160:                                              ; preds = %157
  %161 = load i32, ptr %10, align 4, !tbaa !16
  %162 = icmp ult i32 55295, %161
  br i1 %162, label %163, label %167

163:                                              ; preds = %160
  %164 = load i32, ptr %10, align 4, !tbaa !16
  %165 = icmp ult i32 %164, 57344
  br i1 %165, label %166, label %167

166:                                              ; preds = %163, %157, %133
  store i1 false, ptr %4, align 1
  store i32 1, ptr %15, align 4
  br label %254

167:                                              ; preds = %163, %160
  br label %250

168:                                              ; preds = %101
  %169 = load i8, ptr %16, align 1, !tbaa !15
  %170 = zext i8 %169 to i32
  %171 = and i32 %170, 248
  %172 = icmp eq i32 %171, 240
  br i1 %172, label %173, label %248

173:                                              ; preds = %168
  %174 = load i64, ptr %9, align 8, !tbaa !21
  %175 = add i64 %174, 4
  store i64 %175, ptr %11, align 8, !tbaa !21
  %176 = load i64, ptr %11, align 8, !tbaa !21
  %177 = load i64, ptr %7, align 8, !tbaa !21
  %178 = icmp ugt i64 %176, %177
  br i1 %178, label %179, label %180

179:                                              ; preds = %173
  store i1 false, ptr %4, align 1
  store i32 1, ptr %15, align 4
  br label %254

180:                                              ; preds = %173
  %181 = load ptr, ptr %8, align 8, !tbaa !4
  %182 = load i64, ptr %9, align 8, !tbaa !21
  %183 = add i64 %182, 1
  %184 = getelementptr inbounds nuw i8, ptr %181, i64 %183
  %185 = load i8, ptr %184, align 1, !tbaa !15
  %186 = zext i8 %185 to i32
  %187 = and i32 %186, 192
  %188 = icmp ne i32 %187, 128
  br i1 %188, label %189, label %190

189:                                              ; preds = %180
  store i1 false, ptr %4, align 1
  store i32 1, ptr %15, align 4
  br label %254

190:                                              ; preds = %180
  %191 = load ptr, ptr %8, align 8, !tbaa !4
  %192 = load i64, ptr %9, align 8, !tbaa !21
  %193 = add i64 %192, 2
  %194 = getelementptr inbounds nuw i8, ptr %191, i64 %193
  %195 = load i8, ptr %194, align 1, !tbaa !15
  %196 = zext i8 %195 to i32
  %197 = and i32 %196, 192
  %198 = icmp ne i32 %197, 128
  br i1 %198, label %199, label %200

199:                                              ; preds = %190
  store i1 false, ptr %4, align 1
  store i32 1, ptr %15, align 4
  br label %254

200:                                              ; preds = %190
  %201 = load ptr, ptr %8, align 8, !tbaa !4
  %202 = load i64, ptr %9, align 8, !tbaa !21
  %203 = add i64 %202, 3
  %204 = getelementptr inbounds nuw i8, ptr %201, i64 %203
  %205 = load i8, ptr %204, align 1, !tbaa !15
  %206 = zext i8 %205 to i32
  %207 = and i32 %206, 192
  %208 = icmp ne i32 %207, 128
  br i1 %208, label %209, label %210

209:                                              ; preds = %200
  store i1 false, ptr %4, align 1
  store i32 1, ptr %15, align 4
  br label %254

210:                                              ; preds = %200
  %211 = load i8, ptr %16, align 1, !tbaa !15
  %212 = zext i8 %211 to i32
  %213 = and i32 %212, 7
  %214 = shl i32 %213, 18
  %215 = load ptr, ptr %8, align 8, !tbaa !4
  %216 = load i64, ptr %9, align 8, !tbaa !21
  %217 = add i64 %216, 1
  %218 = getelementptr inbounds nuw i8, ptr %215, i64 %217
  %219 = load i8, ptr %218, align 1, !tbaa !15
  %220 = zext i8 %219 to i32
  %221 = and i32 %220, 63
  %222 = shl i32 %221, 12
  %223 = or i32 %214, %222
  %224 = load ptr, ptr %8, align 8, !tbaa !4
  %225 = load i64, ptr %9, align 8, !tbaa !21
  %226 = add i64 %225, 2
  %227 = getelementptr inbounds nuw i8, ptr %224, i64 %226
  %228 = load i8, ptr %227, align 1, !tbaa !15
  %229 = zext i8 %228 to i32
  %230 = and i32 %229, 63
  %231 = shl i32 %230, 6
  %232 = or i32 %223, %231
  %233 = load ptr, ptr %8, align 8, !tbaa !4
  %234 = load i64, ptr %9, align 8, !tbaa !21
  %235 = add i64 %234, 3
  %236 = getelementptr inbounds nuw i8, ptr %233, i64 %235
  %237 = load i8, ptr %236, align 1, !tbaa !15
  %238 = zext i8 %237 to i32
  %239 = and i32 %238, 63
  %240 = or i32 %232, %239
  store i32 %240, ptr %10, align 4, !tbaa !16
  %241 = load i32, ptr %10, align 4, !tbaa !16
  %242 = icmp ule i32 %241, 65535
  br i1 %242, label %246, label %243

243:                                              ; preds = %210
  %244 = load i32, ptr %10, align 4, !tbaa !16
  %245 = icmp ult i32 1114111, %244
  br i1 %245, label %246, label %247

246:                                              ; preds = %243, %210
  store i1 false, ptr %4, align 1
  store i32 1, ptr %15, align 4
  br label %254

247:                                              ; preds = %243
  br label %249

248:                                              ; preds = %168
  store i1 false, ptr %4, align 1
  store i32 1, ptr %15, align 4
  br label %254

249:                                              ; preds = %247
  br label %250

250:                                              ; preds = %249, %167
  br label %251

251:                                              ; preds = %250, %100
  br label %252

252:                                              ; preds = %251
  %253 = load i64, ptr %11, align 8, !tbaa !21
  store i64 %253, ptr %9, align 8, !tbaa !21
  store i32 0, ptr %15, align 4
  br label %254

254:                                              ; preds = %252, %248, %246, %209, %199, %189, %179, %166, %132, %122, %112, %99, %80, %70, %56
  call void @llvm.lifetime.end.p0(i64 1, ptr %16) #10
  br label %255

255:                                              ; preds = %254, %45
  call void @llvm.lifetime.end.p0(i64 8, ptr %11) #10
  %256 = load i32, ptr %15, align 4
  switch i32 %256, label %259 [
    i32 0, label %257
    i32 2, label %18
  ]

257:                                              ; preds = %255
  br label %18, !llvm.loop !214

258:                                              ; preds = %18
  store i1 true, ptr %4, align 1
  store i32 1, ptr %15, align 4
  br label %259

259:                                              ; preds = %258, %255
  call void @llvm.lifetime.end.p0(i64 4, ptr %10) #10
  call void @llvm.lifetime.end.p0(i64 8, ptr %9) #10
  call void @llvm.lifetime.end.p0(i64 8, ptr %8) #10
  %260 = load i1, ptr %4, align 1
  ret i1 %260
}