; Function Attrs: mustprogress nofree norecurse nosync nounwind willreturn memory(argmem: read) uwtable
define dso_local noundef zeroext i1 @_ZNK8simdjson8fallback14implementation13validate_utf8EPKcm(ptr nonnull readnone align 8 captures(none) %0, ptr noundef readonly captures(none) %1, i64 noundef %2) unnamed_addr #4 align 2 {
  %4 = icmp eq i64 %2, 0
  br i1 %4, label %.thread, label %.lr.ph

.lr.ph:                                           ; preds = %3, %77
  %.079101 = phi i64 [ %.382, %77 ], [ 0, %3 ]
  %5 = add i64 %.079101, 16
  %.not = icmp ugt i64 %5, %2
  %.phi.trans.insert = getelementptr inbounds nuw i8, ptr %1, i64 %.079101
  br i1 %.not, label %.lr.ph._crit_edge, label %6

.lr.ph._crit_edge:                                ; preds = %.lr.ph
  %.pre = load i8, ptr %.phi.trans.insert, align 1, !tbaa !4
  br label %11

6:                                                ; preds = %.lr.ph
  %.0.copyload18 = load i64, ptr %.phi.trans.insert, align 1
  %7 = getelementptr inbounds nuw i8, ptr %.phi.trans.insert, i64 8
  %.0.copyload = load i64, ptr %7, align 1
  %8 = or i64 %.0.copyload, %.0.copyload18
  %9 = and i64 %8, -9187201950435737472
  %.not91 = icmp eq i64 %9, 0
  %10 = trunc i64 %.0.copyload18 to i8
  br i1 %.not91, label %77, label %11

11:                                               ; preds = %.lr.ph._crit_edge, %6
  %12 = phi i8 [ %.pre, %.lr.ph._crit_edge ], [ %10, %6 ]
  %13 = getelementptr inbounds nuw i8, ptr %1, i64 %.079101
  %14 = zext i8 %12 to i32
  %15 = icmp sgt i8 %12, -1
  br i1 %15, label %16, label %18

16:                                               ; preds = %11
  %17 = add i64 %.079101, 1
  br label %77, !llvm.loop !372

18:                                               ; preds = %11
  %19 = and i32 %14, 224
  %20 = icmp eq i32 %19, 192
  br i1 %20, label %21, label %29

21:                                               ; preds = %18
  %22 = add i64 %.079101, 2
  %23 = icmp ugt i64 %22, %2
  br i1 %23, label %.thread, label %24

24:                                               ; preds = %21
  %25 = getelementptr i8, ptr %13, i64 1
  %26 = load i8, ptr %25, align 1, !tbaa !4
  %.not97 = icmp sgt i8 %26, -65
  %27 = and i32 %14, 30
  %28 = icmp eq i32 %27, 0
  %or.cond = or i1 %28, %.not97
  br i1 %or.cond, label %.thread, label %77

29:                                               ; preds = %18
  %30 = and i32 %14, 240
  %31 = icmp eq i32 %30, 224
  br i1 %31, label %32, label %53

32:                                               ; preds = %29
  %33 = add i64 %.079101, 3
  %34 = icmp ugt i64 %33, %2
  br i1 %34, label %.thread, label %35

35:                                               ; preds = %32
  %36 = getelementptr i8, ptr %13, i64 1
  %37 = load i8, ptr %36, align 1, !tbaa !4
  %38 = zext i8 %37 to i32
  %39 = and i32 %38, 192
  %.not95 = icmp eq i32 %39, 128
  br i1 %.not95, label %40, label %.thread

40:                                               ; preds = %35
  %41 = getelementptr i8, ptr %13, i64 2
  %42 = load i8, ptr %41, align 1, !tbaa !4
  %.not96 = icmp slt i8 %42, -64
  br i1 %.not96, label %43, label %.thread

43:                                               ; preds = %40
  %44 = shl nuw nsw i32 %14, 12
  %45 = and i32 %44, 61440
  %46 = shl nuw nsw i32 %38, 6
  %47 = and i32 %46, 4032
  %48 = or disjoint i32 %47, %45
  %49 = icmp samesign ult i32 %48, 2048
  br i1 %49, label %.thread, label %50

50:                                               ; preds = %43
  %51 = icmp samesign ugt i32 %48, 55295
  %52 = icmp samesign ult i32 %45, 57344
  %or.cond5 = select i1 %51, i1 %52, i1 false
  br i1 %or.cond5, label %.thread, label %77

53:                                               ; preds = %29
  %54 = and i32 %14, 248
  %55 = icmp eq i32 %54, 240
  br i1 %55, label %56, label %.thread

56:                                               ; preds = %53
  %57 = add i64 %.079101, 4
  %58 = icmp ugt i64 %57, %2
  br i1 %58, label %.thread, label %59

59:                                               ; preds = %56
  %60 = getelementptr i8, ptr %13, i64 1
  %61 = load i8, ptr %60, align 1, !tbaa !4
  %62 = zext i8 %61 to i32
  %63 = and i32 %62, 192
  %.not92 = icmp eq i32 %63, 128
  br i1 %.not92, label %64, label %.thread

64:                                               ; preds = %59
  %65 = getelementptr i8, ptr %13, i64 2
  %66 = load i8, ptr %65, align 1, !tbaa !4
  %.not93 = icmp slt i8 %66, -64
  br i1 %.not93, label %67, label %.thread

67:                                               ; preds = %64
  %68 = getelementptr i8, ptr %13, i64 3
  %69 = load i8, ptr %68, align 1, !tbaa !4
  %.not94 = icmp slt i8 %69, -64
  br i1 %.not94, label %70, label %.thread

70:                                               ; preds = %67
  %71 = shl nuw nsw i32 %14, 18
  %72 = and i32 %71, 1835008
  %73 = shl nuw nsw i32 %62, 12
  %74 = and i32 %73, 196608
  %75 = add nsw i32 %72, -1114112
  %76 = add nsw i32 %75, %74
  %or.cond7 = icmp ult i32 %76, -1048576
  br i1 %or.cond7, label %.thread, label %77

77:                                               ; preds = %50, %70, %24, %16, %6
  %.382 = phi i64 [ %5, %6 ], [ %17, %16 ], [ %33, %50 ], [ %57, %70 ], [ %22, %24 ]
  %.not128 = icmp ult i64 %.382, %2
  br i1 %.not128, label %.lr.ph, label %.thread

.thread:                                          ; preds = %77, %21, %24, %32, %35, %40, %50, %43, %56, %59, %64, %67, %70, %53, %3
  %.lcssa = phi i1 [ true, %3 ], [ false, %53 ], [ false, %70 ], [ false, %67 ], [ false, %64 ], [ false, %59 ], [ false, %56 ], [ false, %43 ], [ false, %50 ], [ false, %40 ], [ false, %35 ], [ false, %32 ], [ false, %24 ], [ false, %21 ], [ true, %77 ]
  ret i1 %.lcssa
}